target datalayout = "e-m:e-p270:32:32-p271:32:32-p272:64:64-i64:64-i128:128-f80:128-n8:16:32:64-S128"
target triple = "x86_64-pc-linux-gnu"

%struct.lxb_html_tree = type { ptr, ptr, ptr, ptr, ptr, ptr, ptr, %struct.lxb_html_tree_pending_table_t, ptr, i8, i8, i8, i8, i8, i8, ptr, ptr, ptr, i32, i64 }
%struct.lxb_html_tree_pending_table_t = type { ptr, i8 }
%struct.lxb_html_token_t = type { ptr, ptr, i64, i64, ptr, ptr, ptr, ptr, ptr, i64, i64, i32 }

; Function Attrs: nounwind uwtable
define internal ptr @lxb_html_tree_create_node(ptr noundef %0, i64 noundef %1, i64 noundef %2) #0 {
  %4 = alloca ptr, align 8
  %5 = alloca i64, align 8
  %6 = alloca i64, align 8
  store ptr %0, ptr %4, align 8
  store i64 %1, ptr %5, align 8
  store i64 %2, ptr %6, align 8
  %7 = load ptr, ptr %4, align 8
  %8 = getelementptr inbounds %struct.lxb_html_tree, ptr %7, i32 0, i32 1
  %9 = load ptr, ptr %8, align 8
  %10 = load i64, ptr %5, align 8
  %11 = load i64, ptr %6, align 8
  %12 = call ptr @lxb_html_interface_create(ptr noundef %9, i64 noundef %10, i64 noundef %11)
  ret ptr %12
}

; Function Attrs: nounwind uwtable
define hidden ptr @lxb_html_tree_create_document_type_from_token(ptr noundef %0, ptr noundef %1) #0 {
  %3 = alloca ptr, align 8
  %4 = alloca ptr, align 8
  %5 = alloca ptr, align 8
  %6 = alloca i32, align 4
  %7 = alloca ptr, align 8
  %8 = alloca ptr, align 8
  store ptr %0, ptr %4, align 8
  store ptr %1, ptr %5, align 8
  %9 = load ptr, ptr %4, align 8
  %10 = load ptr, ptr %5, align 8
  %11 = getelementptr inbounds %struct.lxb_html_token_t, ptr %10, i32 0, i32 10
  %12 = load i64, ptr %11, align 8
  %13 = call ptr @lxb_html_tree_create_node(ptr noundef %9, i64 noundef %12, i64 noundef 2)
  store ptr %13, ptr %7, align 8
  %14 = load ptr, ptr %7, align 8
  %15 = icmp eq ptr %14, null
  br i1 %15, label %16, label %17

16:                                               ; preds = %2
  store ptr null, ptr %3, align 8
  br label %29

17:                                               ; preds = %2
  %18 = load ptr, ptr %7, align 8
  store ptr %18, ptr %8, align 8
  %19 = load ptr, ptr %5, align 8
  %20 = load ptr, ptr %8, align 8
  %21 = call i32 @lxb_html_token_doctype_parse(ptr noundef %19, ptr noundef %20)
  store i32 %21, ptr %6, align 4
  %22 = load i32, ptr %6, align 4
  %23 = icmp ne i32 %22, 0
  br i1 %23, label %24, label %27

24:                                               ; preds = %17
  %25 = load ptr, ptr %8, align 8
  %26 = call ptr @lxb_dom_document_type_interface_destroy(ptr noundef %25)
  store ptr %26, ptr %3, align 8
  br label %29

27:                                               ; preds = %17
  %28 = load ptr, ptr %8, align 8
  store ptr %28, ptr %3, align 8
  br label %29

29:                                               ; preds = %27, %24, %16
  %30 = load ptr, ptr %3, align 8
  ret ptr %30
}