; Function Attrs: nounwind uwtable
define hidden ptr @lxb_html_tree_create_document_type_from_token(ptr nocapture noundef readonly %0, ptr noundef %1) local_unnamed_addr #0 {
  %3 = getelementptr inbounds i8, ptr %1, i64 80
  %4 = load i64, ptr %3, align 8
  %5 = getelementptr i8, ptr %0, i64 8
  %.val = load ptr, ptr %5, align 8
  %6 = tail call ptr @lxb_html_interface_create(ptr noundef %.val, i64 noundef %4, i64 noundef 2) #9
  %7 = icmp eq ptr %6, null
  br i1 %7, label %12, label %8

8:                                                ; preds = %2
  %9 = tail call i32 @lxb_html_token_doctype_parse(ptr noundef nonnull %1, ptr noundef nonnull %6) #9
  %.not = icmp eq i32 %9, 0
  br i1 %.not, label %12, label %10

10:                                               ; preds = %8
  %11 = tail call ptr @lxb_dom_document_type_interface_destroy(ptr noundef nonnull %6) #9
  br label %12

12:                                               ; preds = %8, %2, %10
  %.0 = phi ptr [ %11, %10 ], [ null, %2 ], [ %6, %8 ]
  ret ptr %.0
}